(dp0
S'4272316342_83c2f52f7c_o.tif'
p1
((I1700
I1042
tp2
(lp3
(I857
I834
tp4
a(I845
I874
tp5
a(I817
I866
tp6
a(I817
I866
tp7
a(I836
I817
tp8
a(I857
I835
tp9
a(I817
I856
tp10
a(I826
I853
tp11
a(I817
I827
tp12
atp13
sS'4643929989_b128f929e5_o.tif'
p14
((I2174
I1632
tp15
(lp16
(I1024
I593
tp17
a(I1024
I593
tp18
a(I512
I669
tp19
a(I964
I1564
tp20
a(I507
I673
tp21
a(I1533
I762
tp22
a(I809
I695
tp23
atp24
sS'4535526706_fdbf22932a_o.tif'
p25
((I2592
I1944
tp26
(lp27
(I1388
I1027
tp28
a(I1388
I1027
tp29
a(I1388
I1027
tp30
a(I1228
I684
tp31
atp32
sS'4016747639_cc64c0b03f_o.tif'
p33
((I3072
I2304
tp34
(lp35
(I1317
I772
tp36
a(I1419
I1729
tp37
a(I1419
I1729
tp38
a(I1372
I1717
tp39
a(I1419
I1729
tp40
a(I1392
I1765
tp41
a(I1260
I1034
tp42
a(I1390
I1735
tp43
a(I1372
I1717
tp44
a(I1419
I1729
tp45
a(I1575
I1277
tp46
a(I1407
I1769
tp47
a(I1337
I1667
tp48
a(I1419
I1729
tp49
a(I1402
I790
tp50
a(I1324
I1715
tp51
atp52
sS'4365719994_8ff2a76957_o.tif'
p53
((I1080
I823
tp54
(lp55
(I990
I178
tp56
a(I990
I178
tp57
a(I987
I217
tp58
a(I987
I217
tp59
a(I987
I217
tp60
a(I987
I217
tp61
atp62
sS'4535497772_a9ac5635cb_o.tif'
p63
((I938
I702
tp64
(lp65
(I468
I569
tp66
a(I468
I557
tp67
a(I307
I532
tp68
a(I421
I70
tp69
a(I474
I80
tp70
a(I468
I545
tp71
atp72
sS'2370107063_b9f97917d0_o.tif'
p73
((I2816
I2112
tp74
(lp75
(I1656
I1695
tp76
a(I1649
I1587
tp77
a(I1522
I1584
tp78
a(I1560
I1671
tp79
a(I1524
I1645
tp80
a(I1564
I1625
tp81
a(I1525
I1623
tp82
a(I1525
I1623
tp83
a(I1560
I1671
tp84
a(I1638
I1625
tp85
a(I672
I915
tp86
a(I1656
I1695
tp87
a(I1539
I1582
tp88
a(I1524
I1666
tp89
a(I1522
I1584
tp90
a(I1649
I1587
tp91
a(I1610
I1710
tp92
a(I1648
I1650
tp93
atp94
sS'2389546130_b749ae9838_o.tif'
p95
((I2816
I2112
tp96
(lp97
(I1609
I1458
tp98
a(I1587
I1475
tp99
a(I1609
I1521
tp100
a(I1609
I1521
tp101
a(I1587
I1475
tp102
a(I1533
I1482
tp103
a(I1536
I1525
tp104
a(I1565
I1460
tp105
a(I1587
I1475
tp106
a(I1626
I1433
tp107
a(I1640
I1519
tp108
a(I1609
I1458
tp109
a(I1590
I1521
tp110
a(I1609
I1521
tp111
a(I1587
I1441
tp112
a(I1596
I1532
tp113
a(I1626
I1433
tp114
a(I1589
I1515
tp115
a(I1587
I1475
tp116
atp117
sS'4369012552_9bcc599908_o.tif'
p118
((I2252
I1774
tp119
(lp120
(I1073
I1521
tp121
a(I1073
I1521
tp122
a(I1039
I1522
tp123
a(I1073
I1521
tp124
a(I1134
I1604
tp125
a(I1105
I1519
tp126
a(I1079
I1559
tp127
a(I1079
I1559
tp128
a(I2106
I671
tp129
a(I1079
I1559
tp130
a(I640
I933
tp131
a(I1582
I672
tp132
a(I1039
I1522
tp133
a(I1134
I1604
tp134
atp135
sS'4368233761_90ed46af33_o.tif'
p136
((I1800
I1661
tp137
(lp138
(I913
I1464
tp139
a(I835
I1489
tp140
a(I889
I1439
tp141
a(I837
I1436
tp142
a(I889
I1439
tp143
a(I903
I1455
tp144
a(I889
I1439
tp145
a(I875
I1387
tp146
a(I835
I1489
tp147
a(I888
I1385
tp148
a(I938
I1459
tp149
a(I889
I1439
tp150
atp151
sS'4241600456_dc88e11390_o.tif'
p152
((I1323
I1154
tp153
(lp154
(I870
I477
tp155
a(I667
I890
tp156
a(I667
I890
tp157
a(I645
I869
tp158
a(I674
I853
tp159
a(I645
I869
tp160
a(I870
I477
tp161
a(I645
I869
tp162
a(I645
I869
tp163
a(I870
I477
tp164
a(I780
I878
tp165
a(I870
I477
tp166
a(I667
I890
tp167
a(I674
I853
tp168
a(I870
I477
tp169
a(I870
I477
tp170
a(I681
I879
tp171
a(I870
I477
tp172
a(I870
I477
tp173
a(I567
I225
tp174
a(I645
I869
tp175
a(I675
I906
tp176
a(I645
I869
tp177
a(I634
I879
tp178
a(I634
I879
tp179
atp180
sS'4643938837_be2ecc51c7_o.tif'
p181
((I1824
I1828
tp182
(lp183
(I948
I558
tp184
a(I1316
I554
tp185
a(I949
I574
tp186
a(I949
I574
tp187
a(I949
I574
tp188
a(I949
I574
tp189
a(I949
I574
tp190
atp191
sS'2072937375_4a2e03fe51_o.tif'
p192
((I2816
I2112
tp193
(lp194
(I1431
I1262
tp195
a(I73
I1294
tp196
a(I1495
I1348
tp197
a(I1491
I1319
tp198
a(I1245
I510
tp199
a(I1491
I1319
tp200
a(I1824
I874
tp201
a(I1548
I99
tp202
a(I1474
I1346
tp203
a(I1474
I1340
tp204
a(I1486
I1347
tp205
a(I1488
I1265
tp206
a(I1431
I1262
tp207
a(I1513
I1306
tp208
atp209
sS'19867125_03432d91cc_b.tif'
p210
((I768
I1024
tp211
(lp212
(I601
I594
tp213
a(I398
I777
tp214
a(I398
I777
tp215
a(I398
I777
tp216
a(I645
I174
tp217
a(I600
I186
tp218
a(I383
I774
tp219
atp220
sS'4643931995_987af9b806_o.tif'
p221
((I1842
I1841
tp222
(lp223
(I1190
I567
tp224
a(I865
I1531
tp225
a(I1258
I746
tp226
a(I966
I1631
tp227
a(I917
I1531
tp228
a(I884
I1572
tp229
a(I931
I1567
tp230
a(I894
I1560
tp231
a(I931
I1567
tp232
a(I894
I1560
tp233
a(I632
I1228
tp234
a(I880
I1529
tp235
a(I897
I1598
tp236
a(I875
I1580
tp237
a(I930
I1595
tp238
a(I930
I1532
tp239
a(I966
I1631
tp240
a(I866
I1581
tp241
a(I866
I1581
tp242
atp243
sS'4313229865_85bd91c3b1_o.tif'
p244
((I2592
I1944
tp245
(lp246
(I1260
I1299
tp247
a(I1271
I1932
tp248
a(I1225
I1302
tp249
a(I1258
I1275
tp250
a(I1260
I1299
tp251
a(I1260
I1299
tp252
a(I1258
I1275
tp253
a(I1202
I1311
tp254
a(I1260
I1299
tp255
a(I1258
I1275
tp256
a(I1471
I1370
tp257
a(I1202
I1311
tp258
a(I1202
I1311
tp259
a(I1258
I1275
tp260
a(I1277
I1285
tp261
a(I1205
I1320
tp262
a(I1245
I1250
tp263
a(I1205
I1272
tp264
atp265
sS'4499567100_438c9853f2_o.tif'
p266
((I2592
I1944
tp267
(lp268
(I1148
I1417
tp269
a(I1215
I1371
tp270
a(I1147
I1383
tp271
a(I1169
I1360
tp272
a(I1183
I1416
tp273
a(I1121
I1404
tp274
a(I1122
I1384
tp275
a(I1210
I1411
tp276
a(I1148
I1417
tp277
a(I1148
I1417
tp278
a(I1183
I1416
tp279
a(I1123
I1424
tp280
a(I1213
I1381
tp281
a(I1505
I662
tp282
a(I1123
I1424
tp283
a(I1165
I1442
tp284
a(I1130
I1403
tp285
a(I1123
I1424
tp286
a(I534
I1078
tp287
a(I1210
I1411
tp288
a(I1198
I1445
tp289
a(I1121
I1414
tp290
a(I1180
I1360
tp291
a(I1124
I1362
tp292
a(I1132
I1446
tp293
atp294
sS'4627151908_193edd1918_o.tif'
p295
((I1395
I1109
tp296
(lp297
(I1061
I547
tp298
a(I236
I105
tp299
a(I506
I726
tp300
a(I682
I420
tp301
a(I890
I447
tp302
atp303
sS'2370946578_babe12039f_o.tif'
p304
((I2816
I2112
tp305
(lp306
(I1532
I1603
tp307
a(I1491
I1608
tp308
a(I1908
I1239
tp309
a(I1567
I1688
tp310
a(I1489
I1648
tp311
a(I1509
I1626
tp312
a(I2021
I962
tp313
a(I1551
I1693
tp314
a(I1527
I1645
tp315
a(I1527
I1607
tp316
a(I1489
I1648
tp317
a(I1509
I1626
tp318
a(I1445
I1587
tp319
a(I1451
I1602
tp320
a(I1532
I1603
tp321
a(I1489
I1648
tp322
a(I1491
I1608
tp323
a(I1527
I1645
tp324
a(I1509
I1626
tp325
a(I2041
I1399
tp326
a(I1455
I1574
tp327
a(I1572
I1587
tp328
a(I1566
I1603
tp329
a(I1445
I1587
tp330
a(I1445
I1587
tp331
a(I1532
I1603
tp332
a(I1566
I1568
tp333
a(I1568
I1630
tp334
a(I1569
I1650
tp335
a(I1568
I1630
tp336
a(I1489
I1648
tp337
a(I1509
I1626
tp338
atp339
sS'4117042233_f0df9ec706_o.tif'
p340
((I1600
I1200
tp341
(lp342
(I830
I969
tp343
a(I807
I993
tp344
a(I721
I630
tp345
a(I794
I1006
tp346
a(I860
I410
tp347
a(I809
I1044
tp348
a(I831
I1008
tp349
a(I830
I1020
tp350
a(I808
I990
tp351
a(I783
I996
tp352
a(I794
I1006
tp353
a(I806
I1021
tp354
a(I808
I990
tp355
a(I819
I967
tp356
a(I819
I967
tp357
a(I807
I993
tp358
a(I793
I977
tp359
a(I783
I996
tp360
a(I754
I980
tp361
a(I756
I970
tp362
a(I830
I969
tp363
a(I782
I1044
tp364
atp365
sS'4241601112_a2b434c69e_o.tif'
p366
((I1512
I1013
tp367
(lp368
(I745
I814
tp369
a(I737
I806
tp370
a(I759
I798
tp371
a(I737
I806
tp372
a(I745
I814
tp373
a(I729
I814
tp374
a(I729
I814
tp375
a(I737
I806
tp376
a(I534
I262
tp377
a(I745
I814
tp378
a(I719
I807
tp379
a(I849
I317
tp380
a(I737
I825
tp381
a(I737
I806
tp382
atp383
sS'4643953869_695dffeb7c_o.tif'
p384
((I2220
I1672
tp385
(lp386
(I1251
I672
tp387
a(I1103
I1443
tp388
a(I1103
I1443
tp389
a(I1174
I1397
tp390
a(I1068
I1409
tp391
a(I1542
I566
tp392
a(I1120
I1392
tp393
a(I1103
I1443
tp394
a(I1120
I1392
tp395
a(I1068
I1409
tp396
a(I1166
I1443
tp397
a(I1408
I676
tp398
a(I1076
I1394
tp399
a(I393
I960
tp400
a(I1095
I1370
tp401
a(I1171
I1411
tp402
a(I1171
I1411
tp403
a(I1120
I1392
tp404
atp405
sS'4328250302_15cbfa06cf_o.tif'
p406
((I2266
I1534
tp407
(lp408
(I812
I690
tp409
a(I812
I690
tp410
a(I946
I608
tp411
a(I946
I608
tp412
a(I1129
I715
tp413
a(I1354
I1422
tp414
a(I946
I608
tp415
a(I946
I608
tp416
atp417
sS'4372856196_df2b761734_b.tif'
p418
((I1024
I768
tp419
(lp420
(I531
I601
tp421
a(I531
I601
tp422
a(I531
I601
tp423
a(I75
I26
tp424
a(I523
I578
tp425
a(I531
I601
tp426
a(I196
I338
tp427
a(I525
I612
tp428
atp429
sS'4206622096_7a1d0183ea_o.tif'
p430
((I3296
I2472
tp431
(lp432
(I1708
I1227
tp433
a(I1560
I1242
tp434
atp435
sS'4535553922_7532cf690e_o.tif'
p436
((I2592
I1944
tp437
(lp438
(I1316
I1545
tp439
a(I1364
I1545
tp440
a(I1324
I1507
tp441
a(I1304
I1487
tp442
a(I1305
I1488
tp443
a(I1311
I1519
tp444
a(I1311
I1519
tp445
a(I1420
I811
tp446
a(I1311
I1519
tp447
a(I1311
I1519
tp448
a(I1324
I1507
tp449
a(I1342
I1523
tp450
a(I1324
I1507
tp451
a(I1365
I1492
tp452
a(I1364
I1545
tp453
a(I1324
I1507
tp454
atp455
sS'3985379922_12b5700e0d_o.tif'
p456
((I1729
I1381
tp457
(lp458
(I830
I227
tp459
a(I539
I543
tp460
a(I723
I388
tp461
atp462
sS'4524487428_a57c130ed4_o.tif'
p463
((I2592
I1944
tp464
(lp465
(I1263
I1434
tp466
a(I1155
I654
tp467
a(I1260
I1458
tp468
a(I1260
I1430
tp469
a(I1224
I1398
tp470
a(I1322
I527
tp471
a(I869
I910
tp472
a(I1222
I1431
tp473
a(I1260
I1430
tp474
a(I1291
I1446
tp475
a(I1207
I1370
tp476
a(I1263
I1394
tp477
a(I1260
I1458
tp478
a(I1227
I680
tp479
a(I1195
I1395
tp480
a(I1228
I1457
tp481
a(I1287
I1372
tp482
a(I1207
I1370
tp483
a(I1207
I1370
tp484
atp485
sS'4385202860_e1da45f3be_o.tif'
p486
((I732
I501
tp487
(lp488
(I702
I114
tp489
a(I445
I438
tp490
a(I24
I410
tp491
a(I251
I140
tp492
atp493
sS'4385204242_5d2d00abcf_o.tif'
p494
((I1026
I724
tp495
(lp496
(I377
I184
tp497
a(I519
I564
tp498
a(I525
I558
tp499
a(I675
I206
tp500
a(I758
I407
tp501
a(I525
I558
tp502
a(I519
I564
tp503
a(I525
I558
tp504
a(I758
I407
tp505
a(I758
I407
tp506
a(I758
I407
tp507
a(I531
I541
tp508
a(I526
I546
tp509
a(I519
I564
tp510
a(I526
I546
tp511
a(I525
I558
tp512
atp513
s.